target datalayout = "e-m:e-p270:32:32-p271:32:32-p272:64:64-i64:64-i128:128-f80:128-n8:16:32:64-S128"
target triple = "x86_64-pc-linux-gnu"

; Function Attrs: mustprogress nounwind uwtable
define dso_local void @_Z14btRemoveRowColPfiii(ptr noundef %0, i32 noundef %1, i32 noundef %2, i32 noundef %3) #1 {
  %5 = alloca ptr, align 8
  %6 = alloca i32, align 4
  %7 = alloca i32, align 4
  %8 = alloca i32, align 4
  %9 = alloca i64, align 8
  %10 = alloca ptr, align 8
  %11 = alloca i32, align 4
  %12 = alloca ptr, align 8
  %13 = alloca i64, align 8
  %14 = alloca ptr, align 8
  %15 = alloca i32, align 4
  %16 = alloca ptr, align 8
  %17 = alloca i64, align 8
  %18 = alloca ptr, align 8
  %19 = alloca i32, align 4
  %20 = alloca ptr, align 8
  store ptr %0, ptr %5, align 8, !tbaa !12
  store i32 %1, ptr %6, align 4, !tbaa !9
  store i32 %2, ptr %7, align 4, !tbaa !9
  store i32 %3, ptr %8, align 4, !tbaa !9
  %21 = load i32, ptr %8, align 4, !tbaa !9
  %22 = load i32, ptr %6, align 4, !tbaa !9
  %23 = sub nsw i32 %22, 1
  %24 = icmp sge i32 %21, %23
  br i1 %24, label %25, label %26

25:                                               ; preds = %4
  br label %124

26:                                               ; preds = %4
  %27 = load i32, ptr %8, align 4, !tbaa !9
  %28 = icmp sgt i32 %27, 0
  br i1 %28, label %29, label %88

29:                                               ; preds = %26
  call void @llvm.lifetime.start.p0(i64 8, ptr %9) #9
  %30 = load i32, ptr %6, align 4, !tbaa !9
  %31 = load i32, ptr %8, align 4, !tbaa !9
  %32 = sub nsw i32 %30, %31
  %33 = sub nsw i32 %32, 1
  %34 = sext i32 %33 to i64
  %35 = mul i64 %34, 4
  store i64 %35, ptr %9, align 8, !tbaa !76
  call void @llvm.lifetime.start.p0(i64 8, ptr %10) #9
  %36 = load ptr, ptr %5, align 8, !tbaa !12
  %37 = load i32, ptr %8, align 4, !tbaa !9
  %38 = sext i32 %37 to i64
  %39 = getelementptr inbounds float, ptr %36, i64 %38
  store ptr %39, ptr %10, align 8, !tbaa !12
  call void @llvm.lifetime.start.p0(i64 4, ptr %11) #9
  store i32 0, ptr %11, align 4, !tbaa !9
  br label %40

40:                                               ; preds = %51, %29
  %41 = load i32, ptr %11, align 4, !tbaa !9
  %42 = load i32, ptr %8, align 4, !tbaa !9
  %43 = icmp slt i32 %41, %42
  br i1 %43, label %45, label %44

44:                                               ; preds = %40
  call void @llvm.lifetime.end.p0(i64 4, ptr %11) #9
  br label %58

45:                                               ; preds = %40
  call void @llvm.lifetime.start.p0(i64 8, ptr %12) #9
  %46 = load ptr, ptr %10, align 8, !tbaa !12
  %47 = getelementptr inbounds float, ptr %46, i64 1
  store ptr %47, ptr %12, align 8, !tbaa !12
  %48 = load ptr, ptr %10, align 8, !tbaa !12
  %49 = load ptr, ptr %12, align 8, !tbaa !12
  %50 = load i64, ptr %9, align 8, !tbaa !76
  call void @llvm.memmove.p0.p0.i64(ptr align 4 %48, ptr align 4 %49, i64 %50, i1 false)
  call void @llvm.lifetime.end.p0(i64 8, ptr %12) #9
  br label %51

51:                                               ; preds = %45
  %52 = load i32, ptr %7, align 4, !tbaa !9
  %53 = load ptr, ptr %10, align 8, !tbaa !12
  %54 = sext i32 %52 to i64
  %55 = getelementptr inbounds float, ptr %53, i64 %54
  store ptr %55, ptr %10, align 8, !tbaa !12
  %56 = load i32, ptr %11, align 4, !tbaa !9
  %57 = add nsw i32 %56, 1
  store i32 %57, ptr %11, align 4, !tbaa !9
  br label %40, !llvm.loop !89

58:                                               ; preds = %44
  call void @llvm.lifetime.end.p0(i64 8, ptr %10) #9
  call void @llvm.lifetime.end.p0(i64 8, ptr %9) #9
  call void @llvm.lifetime.start.p0(i64 8, ptr %13) #9
  %59 = load i32, ptr %8, align 4, !tbaa !9
  %60 = sext i32 %59 to i64
  %61 = mul i64 %60, 4
  store i64 %61, ptr %13, align 8, !tbaa !76
  call void @llvm.lifetime.start.p0(i64 8, ptr %14) #9
  %62 = load ptr, ptr %5, align 8, !tbaa !12
  %63 = load i32, ptr %8, align 4, !tbaa !9
  %64 = load i32, ptr %7, align 4, !tbaa !9
  %65 = mul nsw i32 %63, %64
  %66 = sext i32 %65 to i64
  %67 = getelementptr inbounds float, ptr %62, i64 %66
  store ptr %67, ptr %14, align 8, !tbaa !12
  call void @llvm.lifetime.start.p0(i64 4, ptr %15) #9
  %68 = load i32, ptr %8, align 4, !tbaa !9
  store i32 %68, ptr %15, align 4, !tbaa !9
  br label %69

69:                                               ; preds = %84, %58
  %70 = load i32, ptr %15, align 4, !tbaa !9
  %71 = load i32, ptr %6, align 4, !tbaa !9
  %72 = sub nsw i32 %71, 1
  %73 = icmp slt i32 %70, %72
  br i1 %73, label %75, label %74

74:                                               ; preds = %69
  call void @llvm.lifetime.end.p0(i64 4, ptr %15) #9
  br label %87

75:                                               ; preds = %69
  call void @llvm.lifetime.start.p0(i64 8, ptr %16) #9
  %76 = load ptr, ptr %14, align 8, !tbaa !12
  %77 = load i32, ptr %7, align 4, !tbaa !9
  %78 = sext i32 %77 to i64
  %79 = getelementptr inbounds float, ptr %76, i64 %78
  store ptr %79, ptr %16, align 8, !tbaa !12
  %80 = load ptr, ptr %14, align 8, !tbaa !12
  %81 = load ptr, ptr %16, align 8, !tbaa !12
  %82 = load i64, ptr %13, align 8, !tbaa !76
  call void @llvm.memcpy.p0.p0.i64(ptr align 4 %80, ptr align 4 %81, i64 %82, i1 false)
  %83 = load ptr, ptr %16, align 8, !tbaa !12
  store ptr %83, ptr %14, align 8, !tbaa !12
  call void @llvm.lifetime.end.p0(i64 8, ptr %16) #9
  br label %84

84:                                               ; preds = %75
  %85 = load i32, ptr %15, align 4, !tbaa !9
  %86 = add nsw i32 %85, 1
  store i32 %86, ptr %15, align 4, !tbaa !9
  br label %69, !llvm.loop !90

87:                                               ; preds = %74
  call void @llvm.lifetime.end.p0(i64 8, ptr %14) #9
  call void @llvm.lifetime.end.p0(i64 8, ptr %13) #9
  br label %88

88:                                               ; preds = %87, %26
  call void @llvm.lifetime.start.p0(i64 8, ptr %17) #9
  %89 = load i32, ptr %6, align 4, !tbaa !9
  %90 = load i32, ptr %8, align 4, !tbaa !9
  %91 = sub nsw i32 %89, %90
  %92 = sub nsw i32 %91, 1
  %93 = sext i32 %92 to i64
  %94 = mul i64 %93, 4
  store i64 %94, ptr %17, align 8, !tbaa !76
  call void @llvm.lifetime.start.p0(i64 8, ptr %18) #9
  %95 = load ptr, ptr %5, align 8, !tbaa !12
  %96 = load i32, ptr %8, align 4, !tbaa !9
  %97 = load i32, ptr %7, align 4, !tbaa !9
  %98 = add nsw i32 %97, 1
  %99 = mul nsw i32 %96, %98
  %100 = sext i32 %99 to i64
  %101 = getelementptr inbounds float, ptr %95, i64 %100
  store ptr %101, ptr %18, align 8, !tbaa !12
  call void @llvm.lifetime.start.p0(i64 4, ptr %19) #9
  %102 = load i32, ptr %8, align 4, !tbaa !9
  store i32 %102, ptr %19, align 4, !tbaa !9
  br label %103

103:                                              ; preds = %120, %88
  %104 = load i32, ptr %19, align 4, !tbaa !9
  %105 = load i32, ptr %6, align 4, !tbaa !9
  %106 = sub nsw i32 %105, 1
  %107 = icmp slt i32 %104, %106
  br i1 %107, label %109, label %108

108:                                              ; preds = %103
  call void @llvm.lifetime.end.p0(i64 4, ptr %19) #9
  br label %123

109:                                              ; preds = %103
  call void @llvm.lifetime.start.p0(i64 8, ptr %20) #9
  %110 = load ptr, ptr %18, align 8, !tbaa !12
  %111 = load i32, ptr %7, align 4, !tbaa !9
  %112 = add nsw i32 %111, 1
  %113 = sext i32 %112 to i64
  %114 = getelementptr inbounds float, ptr %110, i64 %113
  store ptr %114, ptr %20, align 8, !tbaa !12
  %115 = load ptr, ptr %18, align 8, !tbaa !12
  %116 = load ptr, ptr %20, align 8, !tbaa !12
  %117 = load i64, ptr %17, align 8, !tbaa !76
  call void @llvm.memcpy.p0.p0.i64(ptr align 4 %115, ptr align 4 %116, i64 %117, i1 false)
  %118 = load ptr, ptr %20, align 8, !tbaa !12
  %119 = getelementptr inbounds float, ptr %118, i64 -1
  store ptr %119, ptr %18, align 8, !tbaa !12
  call void @llvm.lifetime.end.p0(i64 8, ptr %20) #9
  br label %120

120:                                              ; preds = %109
  %121 = load i32, ptr %19, align 4, !tbaa !9
  %122 = add nsw i32 %121, 1
  store i32 %122, ptr %19, align 4, !tbaa !9
  br label %103, !llvm.loop !91

123:                                              ; preds = %108
  call void @llvm.lifetime.end.p0(i64 8, ptr %18) #9
  call void @llvm.lifetime.end.p0(i64 8, ptr %17) #9
  br label %124

124:                                              ; preds = %123, %25
  ret void
}