; Function Attrs: mustprogress nofree norecurse nosync nounwind memory(argmem: readwrite) uwtable
define dso_local void @_Z14btRemoveRowColPfiii(ptr noundef captures(none) %0, i32 noundef %1, i32 noundef %2, i32 noundef %3) local_unnamed_addr #0 {
  %5 = add nsw i32 %1, -1
  %.not = icmp slt i32 %3, %5
  br i1 %.not, label %6, label %.loopexit

6:                                                ; preds = %4
  %7 = icmp sgt i32 %3, 0
  %8 = xor i32 %3, -1
  %9 = add i32 %1, %8
  %10 = sext i32 %9 to i64
  %11 = shl nsw i64 %10, 2
  br i1 %7, label %12, label %.lr.ph58

12:                                               ; preds = %6
  %13 = zext nneg i32 %3 to i64
  %14 = getelementptr inbounds nuw float, ptr %0, i64 %13
  %15 = sext i32 %2 to i64
  br label %20

.lr.ph:                                           ; preds = %20
  %16 = shl nuw nsw i64 %13, 2
  %17 = mul nsw i32 %3, %2
  %18 = sext i32 %17 to i64
  %19 = getelementptr inbounds float, ptr %0, i64 %18
  br label %24

20:                                               ; preds = %12, %20
  %.053 = phi ptr [ %14, %12 ], [ %22, %20 ]
  %.04652 = phi i32 [ 0, %12 ], [ %23, %20 ]
  %21 = getelementptr inbounds nuw i8, ptr %.053, i64 4
  tail call void @llvm.memmove.p0.p0.i64(ptr align 4 %.053, ptr nonnull align 4 %21, i64 %11, i1 false)
  %22 = getelementptr inbounds float, ptr %.053, i64 %15
  %23 = add nuw nsw i32 %.04652, 1
  %exitcond.not = icmp eq i32 %23, %3
  br i1 %exitcond.not, label %.lr.ph, label %20, !llvm.loop !78

24:                                               ; preds = %.lr.ph, %24
  %.04755 = phi ptr [ %19, %.lr.ph ], [ %25, %24 ]
  %.04854 = phi i32 [ %3, %.lr.ph ], [ %26, %24 ]
  %25 = getelementptr inbounds float, ptr %.04755, i64 %15
  tail call void @llvm.memcpy.p0.p0.i64(ptr align 4 %.04755, ptr align 4 %25, i64 %16, i1 false)
  %26 = add nuw nsw i32 %.04854, 1
  %exitcond59.not = icmp eq i32 %26, %5
  br i1 %exitcond59.not, label %.lr.ph58, label %24, !llvm.loop !79

.lr.ph58:                                         ; preds = %24, %6
  %27 = add nsw i32 %2, 1
  %28 = mul nsw i32 %3, %27
  %29 = sext i32 %28 to i64
  %30 = getelementptr inbounds float, ptr %0, i64 %29
  %31 = sext i32 %27 to i64
  br label %32

32:                                               ; preds = %.lr.ph58, %32
  %.04457 = phi i32 [ %3, %.lr.ph58 ], [ %35, %32 ]
  %.04556 = phi ptr [ %30, %.lr.ph58 ], [ %34, %32 ]
  %33 = getelementptr inbounds float, ptr %.04556, i64 %31
  tail call void @llvm.memcpy.p0.p0.i64(ptr align 4 %.04556, ptr align 4 %33, i64 %11, i1 false)
  %34 = getelementptr inbounds i8, ptr %33, i64 -4
  %35 = add nsw i32 %.04457, 1
  %exitcond60.not = icmp eq i32 %35, %5
  br i1 %exitcond60.not, label %.loopexit, label %32, !llvm.loop !80

.loopexit:                                        ; preds = %32, %4
  ret void
}